target datalayout = "e-m:e-p270:32:32-p271:32:32-p272:64:64-i64:64-i128:128-f80:128-n8:16:32:64-S128"
target triple = "x86_64-pc-linux-gnu"

%"class.std::function" = type opaque
%"class.nix::PathRefScanSink" = type { %"class.nix::RefScanSink", %"class.std::map" }
%"class.nix::RefScanSink" = type { %"struct.nix::Sink", %"class.std::set", %"class.std::set", %"class.std::__cxx11::basic_string" }
%"struct.nix::Sink" = type { ptr }
%"class.std::set" = type { %"class.std::_Rb_tree" }
%"class.std::_Rb_tree" = type { %"struct.std::_Rb_tree<std::__cxx11::basic_string<char>, std::__cxx11::basic_string<char>, std::_Identity<std::__cxx11::basic_string<char>>, std::less<std::__cxx11::basic_string<char>>>::_Rb_tree_impl" }
%"struct.std::_Rb_tree<std::__cxx11::basic_string<char>, std::__cxx11::basic_string<char>, std::_Identity<std::__cxx11::basic_string<char>>, std::less<std::__cxx11::basic_string<char>>>::_Rb_tree_impl" = type { %"struct.std::_Rb_tree_key_compare", %"struct.std::_Rb_tree_header" }
%"struct.std::_Rb_tree_key_compare" = type { %"struct.std::less" }
%"struct.std::less" = type { i8 }
%"struct.std::_Rb_tree_header" = type { %"struct.std::_Rb_tree_node_base", i64 }
%"struct.std::_Rb_tree_node_base" = type { i32, ptr, ptr, ptr }
%"class.std::__cxx11::basic_string" = type { %"struct.std::__cxx11::basic_string<char>::_Alloc_hider", i64, %union.anon }
%"struct.std::__cxx11::basic_string<char>::_Alloc_hider" = type { ptr }
%union.anon = type { i64, [8 x i8] }
%"class.std::map" = type { %"class.std::_Rb_tree.3" }
%"class.std::_Rb_tree.3" = type { %"struct.std::_Rb_tree<std::__cxx11::basic_string<char>, std::pair<const std::__cxx11::basic_string<char>, nix::StorePath>, std::_Select1st<std::pair<const std::__cxx11::basic_string<char>, nix::StorePath>>, std::less<std::__cxx11::basic_string<char>>>::_Rb_tree_impl" }
%"struct.std::_Rb_tree<std::__cxx11::basic_string<char>, std::pair<const std::__cxx11::basic_string<char>, nix::StorePath>, std::_Select1st<std::pair<const std::__cxx11::basic_string<char>, nix::StorePath>>, std::less<std::__cxx11::basic_string<char>>>::_Rb_tree_impl" = type { %"struct.std::_Rb_tree_key_compare", %"struct.std::_Rb_tree_header" }
%"class.std::set.7" = type { %"class.std::_Rb_tree.8" }
%"class.std::_Rb_tree.8" = type { %"struct.std::_Rb_tree<nix::StorePath, nix::StorePath, std::_Identity<nix::StorePath>, std::less<nix::StorePath>>::_Rb_tree_impl" }
%"struct.std::_Rb_tree<nix::StorePath, nix::StorePath, std::_Identity<nix::StorePath>, std::less<nix::StorePath>>::_Rb_tree_impl" = type { %"struct.std::_Rb_tree_key_compare.12", %"struct.std::_Rb_tree_header" }
%"struct.std::_Rb_tree_key_compare.12" = type { %"struct.std::less.13" }
%"struct.std::less.13" = type { i8 }
%"struct.nix::TeeSink" = type { %"struct.nix::Sink", ptr, ptr }

@_ZN3nix17defaultPathFilterB5cxx11E = external global %"class.std::function", align 1
@_ZTVN3nix4SinkE = linkonce_odr unnamed_addr constant { [6 x ptr] } { [6 x ptr] [ptr null, ptr @_ZTIN3nix4SinkE, ptr @_ZN3nix4SinkD2Ev, ptr @_ZN3nix4SinkD0Ev, ptr @__cxa_pure_virtual, ptr @_ZN3nix4Sink4goodEv] }, comdat, align 8
@_ZTVN3nix7TeeSinkE = linkonce_odr unnamed_addr constant { [6 x ptr] } { [6 x ptr] [ptr null, ptr @_ZTIN3nix7TeeSinkE, ptr @_ZN3nix7TeeSinkD2Ev, ptr @_ZN3nix7TeeSinkD0Ev, ptr @_ZN3nix7TeeSinkclESt17basic_string_viewIcSt11char_traitsIcEE, ptr @_ZN3nix4Sink4goodEv] }, comdat, align 8

; Function Attrs: mustprogress nounwind uwtable
define linkonce_odr void @_ZN3nix4SinkD2Ev(ptr noundef nonnull align 8 dereferenceable(8) %0) unnamed_addr #2 comdat align 2 {
  %2 = alloca ptr, align 8
  store ptr %0, ptr %2, align 8
  ret void
}

; Function Attrs: mustprogress nounwind uwtable
define linkonce_odr void @_ZN3nix4SinkC2Ev(ptr noundef nonnull align 8 dereferenceable(8) %0) unnamed_addr #2 comdat align 2 {
  %2 = alloca ptr, align 8
  store ptr %0, ptr %2, align 8
  %3 = load ptr, ptr %2, align 8
  store ptr getelementptr inbounds ({ [6 x ptr] }, ptr @_ZTVN3nix4SinkE, i32 0, i32 0, i32 2), ptr %3, align 8
  ret void
}

; Function Attrs: mustprogress nounwind uwtable
define linkonce_odr void @_ZN3nix7TeeSinkD2Ev(ptr noundef nonnull align 8 dereferenceable(24) %0) unnamed_addr #2 comdat align 2 {
  %2 = alloca ptr, align 8
  store ptr %0, ptr %2, align 8
  %3 = load ptr, ptr %2, align 8
  call void @_ZN3nix4SinkD2Ev(ptr noundef nonnull align 8 dereferenceable(8) %3) #1
  ret void
}

; Function Attrs: mustprogress nounwind uwtable
define linkonce_odr void @_ZN3nix7TeeSinkC2ERNS_4SinkES2_(ptr noundef nonnull align 8 dereferenceable(24) %0, ptr noundef nonnull align 8 dereferenceable(8) %1, ptr noundef nonnull align 8 dereferenceable(8) %2) unnamed_addr #2 comdat align 2 {
  %4 = alloca ptr, align 8
  %5 = alloca ptr, align 8
  %6 = alloca ptr, align 8
  store ptr %0, ptr %4, align 8
  store ptr %1, ptr %5, align 8
  store ptr %2, ptr %6, align 8
  %7 = load ptr, ptr %4, align 8
  call void @_ZN3nix4SinkC2Ev(ptr noundef nonnull align 8 dereferenceable(8) %7) #1
  store ptr getelementptr inbounds ({ [6 x ptr] }, ptr @_ZTVN3nix7TeeSinkE, i32 0, i32 0, i32 2), ptr %7, align 8
  %8 = getelementptr inbounds %"struct.nix::TeeSink", ptr %7, i32 0, i32 1
  %9 = load ptr, ptr %5, align 8
  store ptr %9, ptr %8, align 8
  %10 = getelementptr inbounds %"struct.nix::TeeSink", ptr %7, i32 0, i32 2
  %11 = load ptr, ptr %6, align 8
  store ptr %11, ptr %10, align 8
  ret void
}

; Function Attrs: mustprogress uwtable
define void @_ZN3nix17scanForReferencesERNS_4SinkERKNSt7__cxx1112basic_stringIcSt11char_traitsIcESaIcEEERKSt3setINS_9StorePathESt4lessISB_ESaISB_EE(ptr dead_on_unwind noalias writable sret(%"class.std::set.7") align 8 %0, ptr noundef nonnull align 8 dereferenceable(8) %1, ptr noundef nonnull align 8 dereferenceable(32) %2, ptr noundef nonnull align 8 dereferenceable(48) %3) #5 personality ptr @__gxx_personality_v0 {
  %5 = alloca ptr, align 8
  %6 = alloca ptr, align 8
  %7 = alloca ptr, align 8
  %8 = alloca ptr, align 8
  %9 = alloca %"class.nix::PathRefScanSink", align 8
  %10 = alloca %"struct.nix::TeeSink", align 8
  %11 = alloca ptr, align 8
  %12 = alloca i32, align 4
  store ptr %0, ptr %5, align 8
  store ptr %1, ptr %6, align 8
  store ptr %2, ptr %7, align 8
  store ptr %3, ptr %8, align 8
  %13 = load ptr, ptr %8, align 8
  call void @_ZN3nix15PathRefScanSink9fromPathsERKSt3setINS_9StorePathESt4lessIS2_ESaIS2_EE(ptr dead_on_unwind writable sret(%"class.nix::PathRefScanSink") align 8 %9, ptr noundef nonnull align 8 dereferenceable(48) %13)
  %14 = load ptr, ptr %6, align 8
  invoke void @_ZN3nix7TeeSinkC2ERNS_4SinkES2_(ptr noundef nonnull align 8 dereferenceable(24) %10, ptr noundef nonnull align 8 dereferenceable(8) %9, ptr noundef nonnull align 8 dereferenceable(8) %14)
          to label %15 unwind label %19

15:                                               ; preds = %4
  %16 = load ptr, ptr %7, align 8
  invoke void @_ZN3nix8dumpPathERKNSt7__cxx1112basic_stringIcSt11char_traitsIcESaIcEEERNS_4SinkERSt8functionIFbS7_EE(ptr noundef nonnull align 8 dereferenceable(32) %16, ptr noundef nonnull align 8 dereferenceable(8) %10, ptr noundef nonnull align 1 @_ZN3nix17defaultPathFilterB5cxx11E)
          to label %17 unwind label %23

17:                                               ; preds = %15
  invoke void @_ZN3nix15PathRefScanSink14getResultPathsEv(ptr dead_on_unwind writable sret(%"class.std::set.7") align 8 %0, ptr noundef nonnull align 8 dereferenceable(184) %9)
          to label %18 unwind label %23

18:                                               ; preds = %17
  call void @_ZN3nix7TeeSinkD2Ev(ptr noundef nonnull align 8 dereferenceable(24) %10) #1
  call void @_ZN3nix15PathRefScanSinkD2Ev(ptr noundef nonnull align 8 dereferenceable(184) %9) #1
  ret void

19:                                               ; preds = %4
  %20 = landingpad { ptr, i32 }
          cleanup
  %21 = extractvalue { ptr, i32 } %20, 0
  store ptr %21, ptr %11, align 8
  %22 = extractvalue { ptr, i32 } %20, 1
  store i32 %22, ptr %12, align 4
  br label %27

23:                                               ; preds = %17, %15
  %24 = landingpad { ptr, i32 }
          cleanup
  %25 = extractvalue { ptr, i32 } %24, 0
  store ptr %25, ptr %11, align 8
  %26 = extractvalue { ptr, i32 } %24, 1
  store i32 %26, ptr %12, align 4
  call void @_ZN3nix7TeeSinkD2Ev(ptr noundef nonnull align 8 dereferenceable(24) %10) #1
  br label %27

27:                                               ; preds = %23, %19
  call void @_ZN3nix15PathRefScanSinkD2Ev(ptr noundef nonnull align 8 dereferenceable(184) %9) #1
  br label %28

28:                                               ; preds = %27
  %29 = load ptr, ptr %11, align 8
  %30 = load i32, ptr %12, align 4
  %31 = insertvalue { ptr, i32 } poison, ptr %29, 0
  %32 = insertvalue { ptr, i32 } %31, i32 %30, 1
  resume { ptr, i32 } %32
}