; Function Attrs: mustprogress uwtable
define void @_ZN3nix17scanForReferencesERNS_4SinkERKNSt7__cxx1112basic_stringIcSt11char_traitsIcESaIcEEERKSt3setINS_9StorePathESt4lessISB_ESaISB_EE(ptr dead_on_unwind noalias writable sret(%"class.std::set.7") align 8 %0, ptr noundef nonnull align 8 dereferenceable(8) %1, ptr noundef nonnull align 8 dereferenceable(32) %2, ptr noundef nonnull align 8 dereferenceable(48) %3) local_unnamed_addr #4 personality ptr @__gxx_personality_v0 {
  %5 = alloca %"class.nix::PathRefScanSink", align 8
  %6 = alloca %"struct.nix::TeeSink", align 8
  call void @_ZN3nix15PathRefScanSink9fromPathsERKSt3setINS_9StorePathESt4lessIS2_ESaIS2_EE(ptr dead_on_unwind nonnull writable sret(%"class.nix::PathRefScanSink") align 8 %5, ptr noundef nonnull align 8 dereferenceable(48) %3)
  store ptr getelementptr inbounds ({ [6 x ptr] }, ptr @_ZTVN3nix7TeeSinkE, i64 0, i32 0, i64 2), ptr %6, align 8
  %7 = getelementptr inbounds i8, ptr %6, i64 8
  store ptr %5, ptr %7, align 8
  %8 = getelementptr inbounds i8, ptr %6, i64 16
  store ptr %1, ptr %8, align 8
  invoke void @_ZN3nix8dumpPathERKNSt7__cxx1112basic_stringIcSt11char_traitsIcESaIcEEERNS_4SinkERSt8functionIFbS7_EE(ptr noundef nonnull align 8 dereferenceable(32) %2, ptr noundef nonnull align 8 dereferenceable(8) %6, ptr noundef nonnull align 1 @_ZN3nix17defaultPathFilterB5cxx11E)
          to label %9 unwind label %11

9:                                                ; preds = %4
  invoke void @_ZN3nix15PathRefScanSink14getResultPathsEv(ptr dead_on_unwind writable sret(%"class.std::set.7") align 8 %0, ptr noundef nonnull align 8 dereferenceable(184) %5)
          to label %10 unwind label %11

10:                                               ; preds = %9
  call void @_ZN3nix15PathRefScanSinkD2Ev(ptr noundef nonnull align 8 dereferenceable(184) %5) #18
  ret void

11:                                               ; preds = %9, %4
  %12 = landingpad { ptr, i32 }
          cleanup
  call void @_ZN3nix15PathRefScanSinkD2Ev(ptr noundef nonnull align 8 dereferenceable(184) %5) #18
  resume { ptr, i32 } %12
}